; Function Attrs: nounwind uwtable
define ptr @l_Lake_recFetchMemoize___rarg(ptr noundef %0, ptr noundef %1, ptr noundef %2, ptr noundef %3, ptr noundef %4, ptr noundef %5, ptr noundef %6) #0 {
  tail call void @lean_inc_heartbeat() #3
  %8 = tail call noalias ptr @mi_malloc_small(i64 noundef 72) #3
  %9 = icmp eq ptr %8, null
  br i1 %9, label %10, label %lean_alloc_closure.exit

10:                                               ; preds = %7
  tail call void @lean_internal_panic_out_of_memory() #4
  unreachable

lean_alloc_closure.exit:                          ; preds = %7
  %11 = getelementptr inbounds nuw i8, ptr %8, i64 4
  store i32 1, ptr %8, align 4, !tbaa !4
  store i32 -184549304, ptr %11, align 4
  %12 = getelementptr inbounds nuw i8, ptr %8, i64 8
  store ptr @l_Lake_recFetchMemoize___rarg___lambda__5, ptr %12, align 8, !tbaa !10
  %13 = getelementptr inbounds nuw i8, ptr %8, i64 16
  store i16 8, ptr %13, align 8, !tbaa !12
  %14 = getelementptr inbounds nuw i8, ptr %8, i64 18
  store i16 6, ptr %14, align 2, !tbaa !12
  %15 = getelementptr inbounds nuw i8, ptr %8, i64 24
  store ptr %4, ptr %15, align 8, !tbaa !10
  %16 = getelementptr inbounds nuw i8, ptr %8, i64 32
  store ptr %1, ptr %16, align 8, !tbaa !10
  %17 = getelementptr inbounds nuw i8, ptr %8, i64 40
  store ptr %2, ptr %17, align 8, !tbaa !10
  %18 = getelementptr inbounds nuw i8, ptr %8, i64 48
  store ptr %5, ptr %18, align 8, !tbaa !10
  %19 = getelementptr inbounds nuw i8, ptr %8, i64 56
  store ptr %3, ptr %19, align 8, !tbaa !10
  %20 = getelementptr inbounds nuw i8, ptr %8, i64 64
  store ptr %0, ptr %20, align 8, !tbaa !10
  %21 = ptrtoint ptr %8 to i64
  %22 = and i64 %21, 1
  %.not.i = icmp eq i64 %22, 0
  br i1 %.not.i, label %23, label %lean_inc.exit.i

23:                                               ; preds = %lean_alloc_closure.exit
  store i32 2, ptr %8, align 4, !tbaa !4
  br label %lean_inc.exit.i

lean_inc.exit.i:                                  ; preds = %23, %lean_alloc_closure.exit
  tail call void @lean_inc_heartbeat() #3
  %24 = tail call noalias ptr @mi_malloc_small(i64 noundef 32) #3
  %25 = icmp eq ptr %24, null
  br i1 %25, label %26, label %l_Lake_recFetch___rarg.exit

26:                                               ; preds = %lean_inc.exit.i
  tail call void @lean_internal_panic_out_of_memory() #4
  unreachable

l_Lake_recFetch___rarg.exit:                      ; preds = %lean_inc.exit.i
  %27 = getelementptr inbounds nuw i8, ptr %24, i64 4
  store i32 1, ptr %24, align 4, !tbaa !4
  store i32 -184549344, ptr %27, align 4
  %28 = getelementptr inbounds nuw i8, ptr %24, i64 8
  store ptr @l_Lake_recFetch___rarg, ptr %28, align 8, !tbaa !10
  %29 = getelementptr inbounds nuw i8, ptr %24, i64 16
  store i16 2, ptr %29, align 8, !tbaa !12
  %30 = getelementptr inbounds nuw i8, ptr %24, i64 18
  store i16 1, ptr %30, align 2, !tbaa !12
  %31 = getelementptr inbounds nuw i8, ptr %24, i64 24
  store ptr %8, ptr %31, align 8, !tbaa !10
  %32 = tail call ptr @lean_apply_2(ptr noundef nonnull %8, ptr noundef %6, ptr noundef nonnull %24) #3
  ret ptr %32
}